target datalayout = "e-m:e-p270:32:32-p271:32:32-p272:64:64-i64:64-i128:128-f80:128-n8:16:32:64-S128"
target triple = "x86_64-pc-linux-gnu"

%"struct.std::array" = type { [2 x i32] }

; Function Attrs: mustprogress nounwind uwtable
define linkonce_odr noundef nonnull align 4 dereferenceable(4) ptr @_ZNSt14__array_traitsIiLm2EE6_S_refERA2_Kim(ptr noundef nonnull align 4 dereferenceable(8) %0, i64 noundef %1) #0 comdat align 2 {
  %3 = alloca ptr, align 8
  %4 = alloca i64, align 8
  store ptr %0, ptr %3, align 8, !tbaa !105
  store i64 %1, ptr %4, align 8, !tbaa !69
  %5 = load ptr, ptr %3, align 8, !tbaa !105
  %6 = load i64, ptr %4, align 8, !tbaa !69
  %7 = getelementptr inbounds nuw [2 x i32], ptr %5, i64 0, i64 %6
  ret ptr %7
}

; Function Attrs: mustprogress nounwind uwtable
define linkonce_odr noundef nonnull align 4 dereferenceable(4) ptr @_ZNKSt5arrayIiLm2EEixEm(ptr noundef nonnull align 4 dereferenceable(8) %0, i64 noundef %1) #0 comdat align 2 {
  %3 = alloca ptr, align 8
  %4 = alloca i64, align 8
  store ptr %0, ptr %3, align 8, !tbaa !108
  store i64 %1, ptr %4, align 8, !tbaa !69
  %5 = load ptr, ptr %3, align 8
  %6 = getelementptr inbounds nuw %"struct.std::array", ptr %5, i32 0, i32 0
  %7 = load i64, ptr %4, align 8, !tbaa !69
  %8 = call noundef nonnull align 4 dereferenceable(4) ptr @_ZNSt14__array_traitsIiLm2EE6_S_refERA2_Kim(ptr noundef nonnull align 4 dereferenceable(8) %6, i64 noundef %7) #24
  ret ptr %8
}

; Function Attrs: mustprogress nounwind uwtable
define internal noundef zeroext i1 @_ZL9cmp_rangeIiEbRKSt5arrayIT_Lm2EES4_(ptr noundef nonnull align 4 dereferenceable(8) %0, ptr noundef nonnull align 4 dereferenceable(8) %1) #0 {
  %3 = alloca ptr, align 8
  %4 = alloca ptr, align 8
  store ptr %0, ptr %3, align 8, !tbaa !108
  store ptr %1, ptr %4, align 8, !tbaa !108
  %5 = load ptr, ptr %3, align 8, !tbaa !108
  %6 = call noundef nonnull align 4 dereferenceable(4) ptr @_ZNKSt5arrayIiLm2EEixEm(ptr noundef nonnull align 4 dereferenceable(8) %5, i64 noundef 0) #24
  %7 = load i32, ptr %6, align 4, !tbaa !9
  %8 = load ptr, ptr %4, align 8, !tbaa !108
  %9 = call noundef nonnull align 4 dereferenceable(4) ptr @_ZNKSt5arrayIiLm2EEixEm(ptr noundef nonnull align 4 dereferenceable(8) %8, i64 noundef 0) #24
  %10 = load i32, ptr %9, align 4, !tbaa !9
  %11 = icmp slt i32 %7, %10
  br i1 %11, label %30, label %12

12:                                               ; preds = %2
  %13 = load ptr, ptr %3, align 8, !tbaa !108
  %14 = call noundef nonnull align 4 dereferenceable(4) ptr @_ZNKSt5arrayIiLm2EEixEm(ptr noundef nonnull align 4 dereferenceable(8) %13, i64 noundef 0) #24
  %15 = load i32, ptr %14, align 4, !tbaa !9
  %16 = load ptr, ptr %4, align 8, !tbaa !108
  %17 = call noundef nonnull align 4 dereferenceable(4) ptr @_ZNKSt5arrayIiLm2EEixEm(ptr noundef nonnull align 4 dereferenceable(8) %16, i64 noundef 0) #24
  %18 = load i32, ptr %17, align 4, !tbaa !9
  %19 = icmp eq i32 %15, %18
  br i1 %19, label %20, label %28

20:                                               ; preds = %12
  %21 = load ptr, ptr %3, align 8, !tbaa !108
  %22 = call noundef nonnull align 4 dereferenceable(4) ptr @_ZNKSt5arrayIiLm2EEixEm(ptr noundef nonnull align 4 dereferenceable(8) %21, i64 noundef 1) #24
  %23 = load i32, ptr %22, align 4, !tbaa !9
  %24 = load ptr, ptr %4, align 8, !tbaa !108
  %25 = call noundef nonnull align 4 dereferenceable(4) ptr @_ZNKSt5arrayIiLm2EEixEm(ptr noundef nonnull align 4 dereferenceable(8) %24, i64 noundef 1) #24
  %26 = load i32, ptr %25, align 4, !tbaa !9
  %27 = icmp sgt i32 %23, %26
  br label %28

28:                                               ; preds = %20, %12
  %29 = phi i1 [ false, %12 ], [ %27, %20 ]
  br label %30

30:                                               ; preds = %28, %2
  %31 = phi i1 [ true, %2 ], [ %29, %28 ]
  ret i1 %31
}